; Function Attrs: nounwind uwtable
define range(i32 0, 2) i32 @png_convert_to_rfc1123_buffer(ptr noundef %0, ptr nocapture noundef readonly %1) local_unnamed_addr #0 {
  %3 = alloca [5 x i8], align 1
  %4 = icmp eq ptr %0, null
  br i1 %4, label %80, label %5

5:                                                ; preds = %2
  %6 = load i16, ptr %1, align 2
  %7 = icmp ugt i16 %6, 9999
  br i1 %7, label %80, label %8

8:                                                ; preds = %5
  %9 = getelementptr inbounds i8, ptr %1, i64 2
  %10 = load i8, ptr %9, align 2
  %11 = add i8 %10, -13
  %or.cond = icmp ult i8 %11, -12
  br i1 %or.cond, label %80, label %12

12:                                               ; preds = %8
  %13 = getelementptr inbounds i8, ptr %1, i64 3
  %14 = load i8, ptr %13, align 1
  %15 = add i8 %14, -32
  %or.cond58 = icmp ult i8 %15, -31
  br i1 %or.cond58, label %80, label %16

16:                                               ; preds = %12
  %17 = getelementptr inbounds i8, ptr %1, i64 4
  %18 = load i8, ptr %17, align 2
  %19 = icmp ugt i8 %18, 23
  br i1 %19, label %80, label %20

20:                                               ; preds = %16
  %21 = getelementptr inbounds i8, ptr %1, i64 5
  %22 = load i8, ptr %21, align 1
  %23 = icmp ugt i8 %22, 59
  br i1 %23, label %80, label %24

24:                                               ; preds = %20
  %25 = getelementptr inbounds i8, ptr %1, i64 6
  %26 = load i8, ptr %25, align 2
  %27 = icmp ugt i8 %26, 60
  br i1 %27, label %80, label %28

28:                                               ; preds = %24
  call void @llvm.memset.p0.i64(ptr noundef nonnull align 1 dereferenceable(5) %3, i8 0, i64 5, i1 false)
  %29 = getelementptr inbounds i8, ptr %3, i64 5
  %30 = zext nneg i8 %14 to i64
  %31 = call ptr @png_format_number(ptr noundef nonnull %3, ptr noundef nonnull %29, i32 noundef 1, i64 noundef %30) #29
  %32 = call i64 @png_safecat(ptr noundef nonnull %0, i64 noundef 29, i64 noundef 0, ptr noundef %31) #29
  %33 = icmp ult i64 %32, 28
  br i1 %33, label %34, label %37

34:                                               ; preds = %28
  %35 = add nuw nsw i64 %32, 1
  %36 = getelementptr inbounds i8, ptr %0, i64 %32
  store i8 32, ptr %36, align 1
  br label %37

37:                                               ; preds = %34, %28
  %.0 = phi i64 [ %35, %34 ], [ %32, %28 ]
  %38 = load i8, ptr %9, align 2
  %39 = zext i8 %38 to i64
  %40 = add nsw i64 %39, -1
  %41 = getelementptr inbounds [12 x [4 x i8]], ptr @png_convert_to_rfc1123_buffer.short_months, i64 0, i64 %40
  %42 = call i64 @png_safecat(ptr noundef nonnull %0, i64 noundef 29, i64 noundef %.0, ptr noundef nonnull %41) #29
  %43 = icmp ult i64 %42, 28
  br i1 %43, label %44, label %47

44:                                               ; preds = %37
  %45 = add nuw nsw i64 %42, 1
  %46 = getelementptr inbounds i8, ptr %0, i64 %42
  store i8 32, ptr %46, align 1
  br label %47

47:                                               ; preds = %44, %37
  %.1 = phi i64 [ %45, %44 ], [ %42, %37 ]
  %48 = load i16, ptr %1, align 2
  %49 = zext i16 %48 to i64
  %50 = call ptr @png_format_number(ptr noundef nonnull %3, ptr noundef nonnull %29, i32 noundef 1, i64 noundef %49) #29
  %51 = call i64 @png_safecat(ptr noundef nonnull %0, i64 noundef 29, i64 noundef %.1, ptr noundef %50) #29
  %52 = icmp ult i64 %51, 28
  br i1 %52, label %53, label %56

53:                                               ; preds = %47
  %54 = add nuw nsw i64 %51, 1
  %55 = getelementptr inbounds i8, ptr %0, i64 %51
  store i8 32, ptr %55, align 1
  br label %56

56:                                               ; preds = %53, %47
  %.2 = phi i64 [ %54, %53 ], [ %51, %47 ]
  %57 = load i8, ptr %17, align 2
  %58 = zext i8 %57 to i64
  %59 = call ptr @png_format_number(ptr noundef nonnull %3, ptr noundef nonnull %29, i32 noundef 2, i64 noundef %58) #29
  %60 = call i64 @png_safecat(ptr noundef nonnull %0, i64 noundef 29, i64 noundef %.2, ptr noundef %59) #29
  %61 = icmp ult i64 %60, 28
  br i1 %61, label %62, label %65

62:                                               ; preds = %56
  %63 = add nuw nsw i64 %60, 1
  %64 = getelementptr inbounds i8, ptr %0, i64 %60
  store i8 58, ptr %64, align 1
  br label %65

65:                                               ; preds = %62, %56
  %.3 = phi i64 [ %63, %62 ], [ %60, %56 ]
  %66 = load i8, ptr %21, align 1
  %67 = zext i8 %66 to i64
  %68 = call ptr @png_format_number(ptr noundef nonnull %3, ptr noundef nonnull %29, i32 noundef 2, i64 noundef %67) #29
  %69 = call i64 @png_safecat(ptr noundef nonnull %0, i64 noundef 29, i64 noundef %.3, ptr noundef %68) #29
  %70 = icmp ult i64 %69, 28
  br i1 %70, label %71, label %74

71:                                               ; preds = %65
  %72 = add nuw nsw i64 %69, 1
  %73 = getelementptr inbounds i8, ptr %0, i64 %69
  store i8 58, ptr %73, align 1
  br label %74

74:                                               ; preds = %71, %65
  %.4 = phi i64 [ %72, %71 ], [ %69, %65 ]
  %75 = load i8, ptr %25, align 2
  %76 = zext i8 %75 to i64
  %77 = call ptr @png_format_number(ptr noundef nonnull %3, ptr noundef nonnull %29, i32 noundef 2, i64 noundef %76) #29
  %78 = call i64 @png_safecat(ptr noundef nonnull %0, i64 noundef 29, i64 noundef %.4, ptr noundef %77) #29
  %79 = call i64 @png_safecat(ptr noundef nonnull %0, i64 noundef 29, i64 noundef %78, ptr noundef nonnull @.str.6) #29
  br label %80

80:                                               ; preds = %5, %8, %12, %16, %20, %24, %2, %74
  %.044 = phi i32 [ 1, %74 ], [ 0, %2 ], [ 0, %24 ], [ 0, %20 ], [ 0, %16 ], [ 0, %12 ], [ 0, %8 ], [ 0, %5 ]
  ret i32 %.044
}